(dp1
S'rp'
p2
(lp3
F0.028810253384321992
aF0.030693962356883299
aF0.02982755129789828
aF0.017909406197438731
aF0.017802353502272723
aF0.013971389282748806
aF0.0059282755803090085
aF0.0064229730885572494
aF0.0083778634571173346
aF0.0097361984082603055
aF0.0077571249517969431
aF0.0061670808521143462
aF0.0046403674825579487
aF0.0045275389441079197
aF0.0058184473404868479
aF0.0064112550028977483
aF0.007498666736594618
asS'ts'
p4
(lp5
I458
aI1782
aI2405
aI3214
aI3256
aI4387
aI5195
aI5443
aI10759
aI11623
aI12295
aI13151
aI13827
aI13870
aI18972
aI19134
aI21070
asS'rts'
p6
(lp7
F0.35999999999999988
aF1.2799999999999998
aF1.7199999999999998
aF2.2999999999999998
aF2.3399999999999999
aF3.1200000000000001
aF3.6900000000000004
aF3.8700000000000001
aF7.4999999999999991
aF8.1000000000000014
aF8.5700000000000003
aF9.1799999999999997
aF9.6700000000000017
aF9.7100000000000009
aF13.210000000000001
aF13.34
aF14.690000000000001
as.