(dp1
S'rp'
p2
(lp3
F0.024384558670888103
aF0.022436903450476345
aF0.023299800159028581
aF0.022664177045699369
aF0.023671407160861659
aF0.022287349353358115
aF0.022360872722257612
aF0.019693392753255295
asS'ts'
p4
(lp5
I285
aI794
aI945
aI1415
aI2404
aI2913
aI2988
aI6294
as.