(dp1
S'rp'
p2
(lp3
F0.026507185102675884
aF0.025080586790273966
aF0.025462943780562793
aF0.025464926629459452
aF0.026660372172201453
aF0.027485786806880699
aF0.027546634778724058
aF0.026993309255177879
aF0.027558541039948592
aF0.025500898254683491
aF0.02447705945073023
aF0.02427056889205214
aF0.023941065239991316
asS'ts'
p4
(lp5
I918
aI1902
aI2268
aI2346
aI2826
aI2974
aI3011
aI3442
aI3519
aI4411
aI5800
aI5948
aI6133
as.