(dp1
S'rp'
p2
(lp3
F0.026121828759957066
aF0.026677949721225371
aF0.025587248678217423
aF0.025181971875635294
aF0.024742598245206721
aF0.024226485796392545
aF0.024470737488773382
aF0.024528534457651591
aF0.02406233818903666
aF0.023291658228383479
aF0.024156189980531775
aF0.023570443335336359
aF0.023991199540151227
aF0.024131096455253173
aF0.024082210093631342
aF0.025268730064147038
asS'ts'
p4
(lp5
I600
aI1183
aI1586
aI1890
aI2233
aI2373
aI2675
aI2694
aI3458
aI4940
aI5161
aI5327
aI5711
aI5749
aI5815
aI6797
as.