(dp1
S'rp'
p2
(lp3
F0.025759438282828166
aF0.026249859121857871
aF0.025808744207448719
aF0.02616977079519766
aF0.02725617118859187
aF0.026869482716383831
aF0.026618534886110365
aF0.026618534886110365
aF0.026952137652184849
aF0.028041307402077154
aF0.028327759703335599
aF0.02821387982662138
aF0.028405233389831148
aF0.028535196897726395
aF0.028535196897726395
aF0.028305075596112002
aF0.027342533816771829
aF0.028449452139876697
aF0.028197495446283603
aF0.028098941268953553
asS'ts'
p4
(lp5
I216
aI427
aI972
aI1414
aI1970
aI2332
aI2443
aI2456
aI2599
aI3048
aI3259
aI3345
aI3416
aI3515
aI3579
aI3730
aI4159
aI5850
aI5989
aI6038
as.