(dp1
S'rp'
p2
(lp3
F0.02494489553731245
aF0.024360803095796059
aF0.024808825665027272
aF0.024169713398019217
aF0.023866655551137927
aF0.022967886224501841
aF0.021347358169155211
asS'ts'
p4
(lp5
I101
aI1525
aI1616
aI2897
aI3275
aI4776
aI6085
as.