(dp1
S'rp'
p2
(lp3
F0.024844508794843494
aF0.024937531471386887
aF0.025241815296693292
aF0.026065966516247655
aF0.025489647309687266
aF0.026268709543594823
aF0.02654740585786174
aF0.02654740585786174
aF0.025884397627937636
aF0.025708711762660059
aF0.025374894332652415
aF0.024540747524357233
aF0.023758674812002722
aF0.024170720635211928
asS'ts'
p4
(lp5
I214
aI270
aI583
aI815
aI1431
aI1674
aI1884
aI1895
aI2393
aI2962
aI3419
aI3779
aI5860
aI6236
as.