(dp1
S'rp'
p2
(lp3
F0.023451409395673809
aF0.022601434974464017
aF0.022412171765472517
aF0.024633680470717546
aF0.024069767684066493
aF0.025714100576374365
aF0.027847972700565004
aF0.024152022610072776
aF0.022208188491507522
asS'ts'
p4
(lp5
I1082
aI1481
aI1559
aI2394
aI3106
aI3853
aI4762
aI5447
aI7487
as.