(dp1
S'rp'
p2
(lp3
F0.025524359924591129
aF0.024954569333261054
aF0.025156918970603515
aF0.025780933744828163
aF0.026030396459280125
aF0.025730693559706985
aF0.026334315068899196
aF0.023498027869599394
aF0.024673259596706326
aF0.023561285744372315
aF0.025117249959722285
aF0.024280184307763852
asS'ts'
p4
(lp5
I131
aI789
aI936
aI1119
aI1285
aI1387
aI1636
aI2185
aI3420
aI3960
aI5689
aI6509
as.