(dp1
S'rp'
p2
(lp3
F0.027573927891960035
aF0.027652260912502325
aF0.027528134328120454
aF0.028165891139461718
aF0.028700818640594709
aF0.027550311636996231
aF0.028764882185995041
aF0.029373126656355657
aF0.029228740725781906
aF0.03031067437222246
aF0.030386488111617697
aF0.030897444079558176
aF0.030558231351597725
aF0.030570727310987859
aF0.02970252025433269
aF0.031332591468636338
aF0.031189869486527511
aF0.031952154245521704
aF0.031178625291021129
aF0.030097803738611394
asS'ts'
p4
(lp5
I1012
aI1082
aI1294
aI1485
aI1860
aI2442
aI2659
aI2712
aI2880
aI3286
aI3318
aI3461
aI3656
aI3701
aI4468
aI4923
aI5343
aI5674
aI5917
aI6767
as.